; Function Attrs: mustprogress uwtable
define void @_ZN6casadi10DaeBuilder19set_value_referenceERKNSt7__cxx1112basic_stringIcSt11char_traitsIcESaIcEEEx(ptr noundef nonnull align 8 dereferenceable(8) %0, ptr noundef nonnull align 8 dereferenceable(32) %1, i64 noundef %2) local_unnamed_addr #4 align 2 {
  %4 = tail call noundef ptr @_ZNK6casadi13GenericSharedINS_12SharedObjectENS_20SharedObjectInternalEEptEv(ptr noundef nonnull align 8 dereferenceable(8) %0)
  %5 = tail call noundef i64 @_ZNK6casadi18DaeBuilderInternal4findERKNSt7__cxx1112basic_stringIcSt11char_traitsIcESaIcEEE(ptr noundef nonnull align 8 dereferenceable(1017) %4, ptr noundef nonnull align 8 dereferenceable(32) %1)
  %6 = getelementptr inbounds nuw i8, ptr %4, i64 552
  %7 = getelementptr inbounds nuw i8, ptr %4, i64 560
  %8 = load ptr, ptr %7, align 8, !tbaa !103
  %9 = load ptr, ptr %6, align 8, !tbaa !104
  %10 = ptrtoint ptr %8 to i64
  %11 = ptrtoint ptr %9 to i64
  %12 = sub i64 %10, %11
  %13 = ashr exact i64 %12, 3
  %.not.i.i.i.i = icmp ult i64 %5, %13
  br i1 %.not.i.i.i.i, label %_ZN6casadi18DaeBuilderInternal8variableERKNSt7__cxx1112basic_stringIcSt11char_traitsIcESaIcEEE.exit, label %14

14:                                               ; preds = %3
  tail call void (ptr, ...) @_ZSt24__throw_out_of_range_fmtPKcz(ptr noundef nonnull @.str.244, i64 noundef %5, i64 noundef %13) #27
  unreachable

_ZN6casadi18DaeBuilderInternal8variableERKNSt7__cxx1112basic_stringIcSt11char_traitsIcESaIcEEE.exit: ; preds = %3
  %15 = trunc i64 %2 to i32
  %16 = getelementptr inbounds nuw ptr, ptr %9, i64 %5
  %17 = load ptr, ptr %16, align 8, !tbaa !105
  %18 = getelementptr inbounds nuw i8, ptr %17, i64 72
  store i32 %15, ptr %18, align 8, !tbaa !199
  ret void
}